target datalayout = "e-m:e-p270:32:32-p271:32:32-p272:64:64-i64:64-i128:128-f80:128-n8:16:32:64-S128"
target triple = "x86_64-pc-linux-gnu"

; Function Attrs: nounwind uwtable
define internal ptr @dhx_newdata(ptr noundef %0) #0 {
  %2 = alloca ptr, align 8
  %3 = alloca ptr, align 8
  store ptr %0, ptr %2, align 8, !tbaa !3
  call void @llvm.lifetime.start.p0(i64 8, ptr %3) #8
  store ptr null, ptr %3, align 8, !tbaa !7
  %4 = load ptr, ptr %2, align 8, !tbaa !3
  %5 = call ptr @ossl_prov_ctx_get0_libctx(ptr noundef %4)
  %6 = call ptr @ossl_dh_new_ex(ptr noundef %5)
  store ptr %6, ptr %3, align 8, !tbaa !7
  %7 = load ptr, ptr %3, align 8, !tbaa !7
  %8 = icmp ne ptr %7, null
  br i1 %8, label %9, label %12

9:                                                ; preds = %1
  %10 = load ptr, ptr %3, align 8, !tbaa !7
  call void @DH_clear_flags(ptr noundef %10, i32 noundef 61440)
  %11 = load ptr, ptr %3, align 8, !tbaa !7
  call void @DH_set_flags(ptr noundef %11, i32 noundef 4096)
  br label %12

12:                                               ; preds = %9, %1
  %13 = load ptr, ptr %3, align 8, !tbaa !7
  call void @llvm.lifetime.end.p0(i64 8, ptr %3) #8
  ret ptr %13
}