; Function Attrs: nounwind uwtable
define internal ptr @dhx_newdata(ptr noundef %0) #0 {
  %2 = tail call ptr @ossl_prov_ctx_get0_libctx(ptr noundef %0) #8
  %3 = tail call ptr @ossl_dh_new_ex(ptr noundef %2) #8
  %.not = icmp eq ptr %3, null
  br i1 %.not, label %5, label %4

4:                                                ; preds = %1
  tail call void @DH_clear_flags(ptr noundef nonnull %3, i32 noundef 61440) #8
  tail call void @DH_set_flags(ptr noundef nonnull %3, i32 noundef 4096) #8
  br label %5

5:                                                ; preds = %4, %1
  ret ptr %3
}